(lp0
(I8
S'Tanner'
p1
I1
tp2
a(I8
g1
I1
tp3
a(I8
g1
I1
tp4
a(I8
g1
I1
tp5
a(I8
g1
I1
tp6
a(I8
g1
I1
tp7
a(I8
g1
I1
tp8
a(I8
g1
I1
tp9
a(I8
g1
I1
tp10
a(I8
g1
I1
tp11
a(I8
g1
I1
tp12
a(I8
g1
I1
tp13
a(I0
S'Tanner'
p14
I1
tp15
a(I0
g14
I1
tp16
a(I0
g14
I1
tp17
a(I0
g14
I1
tp18
a(I0
g14
I1
tp19
a(I0
g14
I1
tp20
a(I0
g14
I1
tp21
a(I0
g14
I1
tp22
a(I0
g14
I1
tp23
a(I0
g14
I1
tp24
a(I0
g14
I1
tp25
a(I0
g14
I1
tp26
a(I0
S'Tanner'
p27
I1
tp28
a(I18
S'Tanner'
p29
I1
tp30
a(I9
S'Tanner'
p31
I1
tp32
a(I28
S'Tanner'
p33
I1
tp34
a(I17
S'Tanner'
p35
I1
tp36
a(I8
S'Tanner'
p37
I1
tp38
a(I328
S'Tanner'
p39
I5
tp40
a(I180
S''
p41
I1
tp42
a(I3916
S'Tanner'
p43
I19
tp44
a(I180
S'Tanner'
p45
I1
tp46
a(I189
S'Tanner'
p47
I1
tp48
a(I206
S'Tanner'
p49
I1
tp50
a(I329
S'Tanner'
p51
I2
tp52
a(I189
S'Tanner'
p53
I1
tp54
a(I186
S'Tanner'
p55
I1
tp56
a(I207
S'Tanner'
p57
I1
tp58
a(I215
S'Tanner'
p59
I1
tp60
a(I207
S'Tanner'
p61
I1
tp62
a(I198
S'Tanner'
p63
I1
tp64
a(I180
S'Taner'
p65
I1
tp66
a(I180
S'Tanner'
p67
I1
tp68
a(I197
S'Tanner'
p69
I1
tp70
a(I199
S'Tanner'
p71
I1
tp72
a(I1923
S'Tanner'
p73
I10
tp74
a(I433
S'Tanner'
p75
I2
tp76
a(I5811
S'Tanner'
p77
I25
tp78
a(I1722
S'Tanner'
p79
I9
tp80
a(I197
S'Tanner'
p81
I1
tp82
a(I1438
S'Tanner'
p83
I6
tp84
a(I930
g41
I4
tp85
a(I5117
S'Tanner'
p86
I21
tp87
a(I1501
S'Tanner'
p88
I7
tp89
a.